target datalayout = "e-m:e-p270:32:32-p271:32:32-p272:64:64-i64:64-i128:128-f80:128-n8:16:32:64-S128"
target triple = "x86_64-pc-linux-gnu"

@.str = private unnamed_addr constant [51 x i8] c"Error: Could not find Java SE Runtime Environment.\00", align 1
@.str.12 = private unnamed_addr constant [53 x i8] c"Error: Path length exceeds maximum length (PATH_MAX)\00", align 1
@hSplashLib = internal global ptr null, align 8
@.str.23 = private unnamed_addr constant [10 x i8] c"%s/lib/%s\00", align 1
@SPLASHSCREEN_SO = internal global ptr @.str.38, align 8
@.str.24 = private unnamed_addr constant [42 x i8] c"Error: String processing operation failed\00", align 1
@.str.25 = private unnamed_addr constant [17 x i8] c"Info: loaded %s\0A\00", align 1

; Function Attrs: nounwind uwtable
define hidden ptr @SplashProcAddress(ptr noundef %0) #0 {
  %2 = alloca ptr, align 8
  %3 = alloca ptr, align 8
  %4 = alloca i32, align 4
  %5 = alloca [4096 x i8], align 16
  %6 = alloca [4096 x i8], align 16
  %7 = alloca ptr, align 8
  store ptr %0, ptr %3, align 8
  %8 = load ptr, ptr @hSplashLib, align 8
  %9 = icmp ne ptr %8, null
  br i1 %9, label %31, label %10

10:                                               ; preds = %1
  %11 = getelementptr inbounds [4096 x i8], ptr %5, i64 0, i64 0
  %12 = call zeroext i8 @GetJREPath(ptr noundef %11, i32 noundef 4096, i8 noundef zeroext 0)
  %13 = icmp ne i8 %12, 0
  br i1 %13, label %15, label %14

14:                                               ; preds = %10
  call void (ptr, ...) @JLI_ReportErrorMessage(ptr noundef @.str)
  store ptr null, ptr %2, align 8
  br label %40

15:                                               ; preds = %10
  %16 = getelementptr inbounds [4096 x i8], ptr %6, i64 0, i64 0
  %17 = getelementptr inbounds [4096 x i8], ptr %5, i64 0, i64 0
  %18 = load ptr, ptr @SPLASHSCREEN_SO, align 8
  %19 = call i32 (ptr, i64, ptr, ...) @snprintf(ptr noundef %16, i64 noundef 4096, ptr noundef @.str.23, ptr noundef %17, ptr noundef %18) #7
  store i32 %19, ptr %4, align 4
  %20 = load i32, ptr %4, align 4
  %21 = icmp sge i32 %20, 4096
  br i1 %21, label %22, label %23

22:                                               ; preds = %15
  call void (ptr, ...) @JLI_ReportErrorMessage(ptr noundef @.str.12)
  store ptr null, ptr %2, align 8
  br label %40

23:                                               ; preds = %15
  %24 = load i32, ptr %4, align 4
  %25 = icmp slt i32 %24, 0
  br i1 %25, label %26, label %27

26:                                               ; preds = %23
  call void (ptr, ...) @JLI_ReportErrorMessage(ptr noundef @.str.24)
  store ptr null, ptr %2, align 8
  br label %40

27:                                               ; preds = %23
  %28 = getelementptr inbounds [4096 x i8], ptr %6, i64 0, i64 0
  %29 = call ptr @dlopen(ptr noundef %28, i32 noundef 257) #7
  store ptr %29, ptr @hSplashLib, align 8
  %30 = getelementptr inbounds [4096 x i8], ptr %6, i64 0, i64 0
  call void (ptr, ...) @JLI_TraceLauncher(ptr noundef @.str.25, ptr noundef %30)
  br label %31

31:                                               ; preds = %27, %1
  %32 = load ptr, ptr @hSplashLib, align 8
  %33 = icmp ne ptr %32, null
  br i1 %33, label %34, label %39

34:                                               ; preds = %31
  %35 = load ptr, ptr @hSplashLib, align 8
  %36 = load ptr, ptr %3, align 8
  %37 = call ptr @dlsym(ptr noundef %35, ptr noundef %36) #7
  store ptr %37, ptr %7, align 8
  %38 = load ptr, ptr %7, align 8
  store ptr %38, ptr %2, align 8
  br label %40

39:                                               ; preds = %31
  store ptr null, ptr %2, align 8
  br label %40

40:                                               ; preds = %39, %34, %26, %22, %14
  %41 = load ptr, ptr %2, align 8
  ret ptr %41
}