; Function Attrs: nounwind uwtable
define hidden ptr @SplashProcAddress(ptr noundef %0) local_unnamed_addr #1 {
  %2 = alloca [4096 x i8], align 16
  %3 = alloca [4096 x i8], align 16
  %4 = load ptr, ptr @hSplashLib, align 8
  %.not = icmp eq ptr %4, null
  br i1 %.not, label %5, label %.thread

5:                                                ; preds = %1
  %6 = call fastcc zeroext i8 @GetJREPath(ptr noundef nonnull %2, i32 noundef 4096)
  %.not6 = icmp eq i8 %6, 0
  br i1 %.not6, label %7, label %8

7:                                                ; preds = %5
  call void (ptr, ...) @JLI_ReportErrorMessage(ptr noundef nonnull @.str) #12
  br label %19

8:                                                ; preds = %5
  %9 = call i32 (ptr, i64, ptr, ...) @snprintf(ptr noundef nonnull dereferenceable(1) %3, i64 noundef 4096, ptr noundef nonnull @.str.23, ptr noundef nonnull %2, ptr noundef nonnull @.str.38) #12
  %10 = icmp sgt i32 %9, 4095
  br i1 %10, label %11, label %12

11:                                               ; preds = %8
  call void (ptr, ...) @JLI_ReportErrorMessage(ptr noundef nonnull @.str.12) #12
  br label %19

12:                                               ; preds = %8
  %13 = icmp slt i32 %9, 0
  br i1 %13, label %14, label %15

14:                                               ; preds = %12
  call void (ptr, ...) @JLI_ReportErrorMessage(ptr noundef nonnull @.str.24) #12
  br label %19

15:                                               ; preds = %12
  %16 = call ptr @dlopen(ptr noundef nonnull %3, i32 noundef 257) #12
  store ptr %16, ptr @hSplashLib, align 8
  call void (ptr, ...) @JLI_TraceLauncher(ptr noundef nonnull @.str.25, ptr noundef nonnull %3) #12
  %.pr = load ptr, ptr @hSplashLib, align 8
  %.not7 = icmp eq ptr %.pr, null
  br i1 %.not7, label %19, label %.thread

.thread:                                          ; preds = %1, %15
  %17 = phi ptr [ %.pr, %15 ], [ %4, %1 ]
  %18 = call ptr @dlsym(ptr noundef nonnull %17, ptr noundef %0) #12
  br label %19

19:                                               ; preds = %15, %.thread, %14, %11, %7
  %.0 = phi ptr [ %18, %.thread ], [ null, %11 ], [ null, %14 ], [ null, %7 ], [ null, %15 ]
  ret ptr %.0
}